; ModuleID = '51/1087.c'
source_filename = "51/1087.c"
target datalayout = "e-m:e-p270:32:32-p271:32:32-p272:64:64-i64:64-f80:128-n8:16:32:64-S128"
target triple = "x86_64-pc-linux-gnu"

@.str = private unnamed_addr constant [3 x i8] c"%d\00", align 1
@.str.1 = private unnamed_addr constant [3 x i8] c"%s\00", align 1
@.str.2 = private unnamed_addr constant [3 x i8] c"NO\00", align 1
@.str.3 = private unnamed_addr constant [4 x i8] c"%d\0A\00", align 1
@.str.4 = private unnamed_addr constant [4 x i8] c"%s\0A\00", align 1

; Function Attrs: noinline nounwind uwtable
define dso_local i32 @main() #0 {
  %1 = alloca i32, align 4
  %2 = alloca i32, align 4
  %3 = alloca i32, align 4
  %4 = alloca i32, align 4
  %5 = alloca i32, align 4
  %6 = alloca i32, align 4
  %7 = alloca i32, align 4
  %8 = alloca [500 x i8], align 16
  %9 = alloca [500 x [5 x i8]], align 16
  %10 = alloca [500 x i32], align 16
  store i32 0, i32* %1, align 4
  store i32 1, i32* %7, align 4
  %11 = call i32 (i8*, ...) @__isoc99_scanf(i8* getelementptr inbounds ([3 x i8], [3 x i8]* @.str, i64 0, i64 0), i32* %6)
  %12 = getelementptr inbounds [500 x i8], [500 x i8]* %8, i64 0, i64 0
  %13 = call i32 (i8*, ...) @__isoc99_scanf(i8* getelementptr inbounds ([3 x i8], [3 x i8]* @.str.1, i64 0, i64 0), i8* %12)
  %14 = getelementptr inbounds [500 x i8], [500 x i8]* %8, i64 0, i64 0
  %15 = call i64 @strlen(i8* %14) #3
  %16 = trunc i64 %15 to i32
  store i32 %16, i32* %2, align 4
  store i32 0, i32* %3, align 4
  br label %17

17:                                               ; preds = %55, %0
  %18 = load i32, i32* %3, align 4
  %19 = load i32, i32* %2, align 4
  %20 = load i32, i32* %6, align 4
  %21 = sub nsw i32 %19, %20
  %22 = add nsw i32 %21, 1
  %23 = icmp slt i32 %18, %22
  br i1 %23, label %24, label %58

24:                                               ; preds = %17
  %25 = load i32, i32* %3, align 4
  %26 = sext i32 %25 to i64
  %27 = getelementptr inbounds [500 x i32], [500 x i32]* %10, i64 0, i64 %26
  store i32 1, i32* %27, align 4
  store i32 0, i32* %5, align 4
  br label %28

28:                                               ; preds = %45, %24
  %29 = load i32, i32* %5, align 4
  %30 = load i32, i32* %6, align 4
  %31 = icmp slt i32 %29, %30
  br i1 %31, label %32, label %48

32:                                               ; preds = %28
  %33 = load i32, i32* %3, align 4
  %34 = load i32, i32* %5, align 4
  %35 = add nsw i32 %33, %34
  %36 = sext i32 %35 to i64
  %37 = getelementptr inbounds [500 x i8], [500 x i8]* %8, i64 0, i64 %36
  %38 = load i8, i8* %37, align 1
  %39 = load i32, i32* %3, align 4
  %40 = sext i32 %39 to i64
  %41 = getelementptr inbounds [500 x [5 x i8]], [500 x [5 x i8]]* %9, i64 0, i64 %40
  %42 = load i32, i32* %5, align 4
  %43 = sext i32 %42 to i64
  %44 = getelementptr inbounds [5 x i8], [5 x i8]* %41, i64 0, i64 %43
  store i8 %38, i8* %44, align 1
  br label %45

45:                                               ; preds = %32
  %46 = load i32, i32* %5, align 4
  %47 = add nsw i32 %46, 1
  store i32 %47, i32* %5, align 4
  br label %28

48:                                               ; preds = %28
  %49 = load i32, i32* %3, align 4
  %50 = sext i32 %49 to i64
  %51 = getelementptr inbounds [500 x [5 x i8]], [500 x [5 x i8]]* %9, i64 0, i64 %50
  %52 = load i32, i32* %5, align 4
  %53 = sext i32 %52 to i64
  %54 = getelementptr inbounds [5 x i8], [5 x i8]* %51, i64 0, i64 %53
  store i8 0, i8* %54, align 1
  br label %55

55:                                               ; preds = %48
  %56 = load i32, i32* %3, align 4
  %57 = add nsw i32 %56, 1
  store i32 %57, i32* %3, align 4
  br label %17

58:                                               ; preds = %17
  store i32 0, i32* %3, align 4
  br label %59

59:                                               ; preds = %97, %58
  %60 = load i32, i32* %3, align 4
  %61 = load i32, i32* %2, align 4
  %62 = load i32, i32* %6, align 4
  %63 = sub nsw i32 %61, %62
  %64 = icmp slt i32 %60, %63
  br i1 %64, label %65, label %100

65:                                               ; preds = %59
  %66 = load i32, i32* %3, align 4
  %67 = add nsw i32 %66, 1
  store i32 %67, i32* %5, align 4
  br label %68

68:                                               ; preds = %93, %65
  %69 = load i32, i32* %5, align 4
  %70 = load i32, i32* %2, align 4
  %71 = load i32, i32* %6, align 4
  %72 = sub nsw i32 %70, %71
  %73 = add nsw i32 %72, 1
  %74 = icmp slt i32 %69, %73
  br i1 %74, label %75, label %96

75:                                               ; preds = %68
  %76 = load i32, i32* %3, align 4
  %77 = sext i32 %76 to i64
  %78 = getelementptr inbounds [500 x [5 x i8]], [500 x [5 x i8]]* %9, i64 0, i64 %77
  %79 = getelementptr inbounds [5 x i8], [5 x i8]* %78, i64 0, i64 0
  %80 = load i32, i32* %5, align 4
  %81 = sext i32 %80 to i64
  %82 = getelementptr inbounds [500 x [5 x i8]], [500 x [5 x i8]]* %9, i64 0, i64 %81
  %83 = getelementptr inbounds [5 x i8], [5 x i8]* %82, i64 0, i64 0
  %84 = call i32 @strcmp(i8* %79, i8* %83) #3
  %85 = icmp eq i32 %84, 0
  br i1 %85, label %86, label %92

86:                                               ; preds = %75
  %87 = load i32, i32* %3, align 4
  %88 = sext i32 %87 to i64
  %89 = getelementptr inbounds [500 x i32], [500 x i32]* %10, i64 0, i64 %88
  %90 = load i32, i32* %89, align 4
  %91 = add nsw i32 %90, 1
  store i32 %91, i32* %89, align 4
  br label %92

92:                                               ; preds = %86, %75
  br label %93

93:                                               ; preds = %92
  %94 = load i32, i32* %5, align 4
  %95 = add nsw i32 %94, 1
  store i32 %95, i32* %5, align 4
  br label %68

96:                                               ; preds = %68
  br label %97

97:                                               ; preds = %96
  %98 = load i32, i32* %3, align 4
  %99 = add nsw i32 %98, 1
  store i32 %99, i32* %3, align 4
  br label %59

100:                                              ; preds = %59
  store i32 0, i32* %3, align 4
  br label %101

101:                                              ; preds = %120, %100
  %102 = load i32, i32* %3, align 4
  %103 = load i32, i32* %2, align 4
  %104 = load i32, i32* %6, align 4
  %105 = sub nsw i32 %103, %104
  %106 = icmp slt i32 %102, %105
  br i1 %106, label %107, label %123

107:                                              ; preds = %101
  %108 = load i32, i32* %7, align 4
  %109 = load i32, i32* %3, align 4
  %110 = sext i32 %109 to i64
  %111 = getelementptr inbounds [500 x i32], [500 x i32]* %10, i64 0, i64 %110
  %112 = load i32, i32* %111, align 4
  %113 = icmp slt i32 %108, %112
  br i1 %113, label %114, label %119

114:                                              ; preds = %107
  %115 = load i32, i32* %3, align 4
  %116 = sext i32 %115 to i64
  %117 = getelementptr inbounds [500 x i32], [500 x i32]* %10, i64 0, i64 %116
  %118 = load i32, i32* %117, align 4
  store i32 %118, i32* %7, align 4
  br label %119

119:                                              ; preds = %114, %107
  br label %120

120:                                              ; preds = %119
  %121 = load i32, i32* %3, align 4
  %122 = add nsw i32 %121, 1
  store i32 %122, i32* %3, align 4
  br label %101

123:                                              ; preds = %101
  %124 = load i32, i32* %7, align 4
  %125 = icmp eq i32 %124, 1
  br i1 %125, label %126, label %128

126:                                              ; preds = %123
  %127 = call i32 (i8*, ...) @printf(i8* getelementptr inbounds ([3 x i8], [3 x i8]* @.str.2, i64 0, i64 0))
  br label %155

128:                                              ; preds = %123
  %129 = load i32, i32* %7, align 4
  %130 = call i32 (i8*, ...) @printf(i8* getelementptr inbounds ([4 x i8], [4 x i8]* @.str.3, i64 0, i64 0), i32 %129)
  store i32 0, i32* %3, align 4
  br label %131

131:                                              ; preds = %151, %128
  %132 = load i32, i32* %3, align 4
  %133 = load i32, i32* %2, align 4
  %134 = load i32, i32* %6, align 4
  %135 = sub nsw i32 %133, %134
  %136 = icmp slt i32 %132, %135
  br i1 %136, label %137, label %154

137:                                              ; preds = %131
  %138 = load i32, i32* %7, align 4
  %139 = load i32, i32* %3, align 4
  %140 = sext i32 %139 to i64
  %141 = getelementptr inbounds [500 x i32], [500 x i32]* %10, i64 0, i64 %140
  %142 = load i32, i32* %141, align 4
  %143 = icmp eq i32 %138, %142
  br i1 %143, label %144, label %150

144:                                              ; preds = %137
  %145 = load i32, i32* %3, align 4
  %146 = sext i32 %145 to i64
  %147 = getelementptr inbounds [500 x [5 x i8]], [500 x [5 x i8]]* %9, i64 0, i64 %146
  %148 = getelementptr inbounds [5 x i8], [5 x i8]* %147, i64 0, i64 0
  %149 = call i32 (i8*, ...) @printf(i8* getelementptr inbounds ([4 x i8], [4 x i8]* @.str.4, i64 0, i64 0), i8* %148)
  br label %150

150:                                              ; preds = %144, %137
  br label %151

151:                                              ; preds = %150
  %152 = load i32, i32* %3, align 4
  %153 = add nsw i32 %152, 1
  store i32 %153, i32* %3, align 4
  br label %131

154:                                              ; preds = %131
  br label %155

155:                                              ; preds = %154, %126
  %156 = load i32, i32* %1, align 4
  ret i32 %156
}

declare dso_local i32 @__isoc99_scanf(i8*, ...) #1

; Function Attrs: nounwind readonly
declare dso_local i64 @strlen(i8*) #2

; Function Attrs: nounwind readonly
declare dso_local i32 @strcmp(i8*, i8*) #2

declare dso_local i32 @printf(i8*, ...) #1


!llvm.module.flags = !{!0}
!llvm.ident = !{!1}

!0 = !{i32 1, !"wchar_size", i32 4}
!1 = !{!"clang version 10.0.0-4ubuntu1 "}
